target datalayout = "e-m:e-p270:32:32-p271:32:32-p272:64:64-i64:64-i128:128-f80:128-n8:16:32:64-S128"
target triple = "x86_64-pc-linux-gnu"

@libctx = internal global ptr null, align 8
@.str.6 = private unnamed_addr constant [37 x i8] c"../openssl/test/provider_pkey_test.c\00", align 1
@.str.7 = private unnamed_addr constant [34 x i8] c"fake_rsa = fake_rsa_start(libctx)\00", align 1
@.str.8 = private unnamed_addr constant [46 x i8] c"deflt = OSSL_PROVIDER_load(libctx, \22default\22)\00", align 1
@.str.9 = private unnamed_addr constant [8 x i8] c"default\00", align 1
@.str.11 = private unnamed_addr constant [4 x i8] c"RSA\00", align 1
@.str.14 = private unnamed_addr constant [19 x i8] c"?provider=fake-rsa\00", align 1
@.str.18 = private unnamed_addr constant [5 x i8] c"pkey\00", align 1
@.str.20 = private unnamed_addr constant [18 x i8] c"?provider=default\00", align 1
@.str.22 = private unnamed_addr constant [2 x i8] c"1\00", align 1
@.str.49 = private unnamed_addr constant [60 x i8] c"loader = OSSL_STORE_LOADER_fetch(libctx, \22fake_rsa\22, propq)\00", align 1
@.str.50 = private unnamed_addr constant [9 x i8] c"fake_rsa\00", align 1
@.str.51 = private unnamed_addr constant [87 x i8] c"ctx = OSSL_STORE_open_ex(\22fake_rsa:test\22, libctx, propq, NULL, NULL, NULL, NULL, NULL)\00", align 1
@.str.52 = private unnamed_addr constant [14 x i8] c"fake_rsa:test\00", align 1
@.str.53 = private unnamed_addr constant [27 x i8] c"EVP_PKEY_is_a(pkey, \22RSA\22)\00", align 1

; Function Attrs: nounwind uwtable
define internal i32 @test_pkey_store(i32 noundef %0) #0 {
  %2 = alloca i32, align 4
  %3 = alloca ptr, align 8
  %4 = alloca ptr, align 8
  %5 = alloca i32, align 4
  %6 = alloca ptr, align 8
  %7 = alloca ptr, align 8
  %8 = alloca ptr, align 8
  %9 = alloca ptr, align 8
  %10 = alloca ptr, align 8
  store i32 %0, ptr %2, align 4, !tbaa !11
  call void @llvm.lifetime.start.p0(i64 8, ptr %3) #3
  store ptr null, ptr %3, align 8, !tbaa !9
  call void @llvm.lifetime.start.p0(i64 8, ptr %4) #3
  store ptr null, ptr %4, align 8, !tbaa !9
  call void @llvm.lifetime.start.p0(i64 4, ptr %5) #3
  store i32 0, ptr %5, align 4, !tbaa !11
  call void @llvm.lifetime.start.p0(i64 8, ptr %6) #3
  store ptr null, ptr %6, align 8, !tbaa !13
  call void @llvm.lifetime.start.p0(i64 8, ptr %7) #3
  store ptr null, ptr %7, align 8, !tbaa !25
  call void @llvm.lifetime.start.p0(i64 8, ptr %8) #3
  store ptr null, ptr %8, align 8, !tbaa !27
  call void @llvm.lifetime.start.p0(i64 8, ptr %9) #3
  call void @llvm.lifetime.start.p0(i64 8, ptr %10) #3
  %11 = load i32, ptr %2, align 4, !tbaa !11
  %12 = icmp eq i32 %11, 0
  %13 = select i1 %12, ptr @.str.14, ptr @.str.20
  store ptr %13, ptr %10, align 8, !tbaa !21
  %14 = load ptr, ptr @libctx, align 8, !tbaa !4
  %15 = call ptr @OSSL_PROVIDER_load(ptr noundef %14, ptr noundef @.str.9)
  store ptr %15, ptr %3, align 8, !tbaa !9
  %16 = call i32 @test_ptr(ptr noundef @.str.6, i32 noundef 255, ptr noundef @.str.8, ptr noundef %15)
  %17 = icmp ne i32 %16, 0
  br i1 %17, label %19, label %18

18:                                               ; preds = %1
  br label %74

19:                                               ; preds = %1
  %20 = load ptr, ptr @libctx, align 8, !tbaa !4
  %21 = call ptr @fake_rsa_start(ptr noundef %20)
  store ptr %21, ptr %4, align 8, !tbaa !9
  %22 = call i32 @test_ptr(ptr noundef @.str.6, i32 noundef 258, ptr noundef @.str.7, ptr noundef %21)
  %23 = icmp ne i32 %22, 0
  br i1 %23, label %25, label %24

24:                                               ; preds = %19
  br label %74

25:                                               ; preds = %19
  %26 = load ptr, ptr @libctx, align 8, !tbaa !4
  %27 = load ptr, ptr %10, align 8, !tbaa !21
  %28 = call ptr @OSSL_STORE_LOADER_fetch(ptr noundef %26, ptr noundef @.str.50, ptr noundef %27)
  store ptr %28, ptr %7, align 8, !tbaa !25
  %29 = call i32 @test_ptr(ptr noundef @.str.6, i32 noundef 262, ptr noundef @.str.49, ptr noundef %28)
  %30 = icmp ne i32 %29, 0
  br i1 %30, label %32, label %31

31:                                               ; preds = %25
  br label %74

32:                                               ; preds = %25
  %33 = load ptr, ptr %7, align 8, !tbaa !25
  call void @OSSL_STORE_LOADER_free(ptr noundef %33)
  %34 = load ptr, ptr @libctx, align 8, !tbaa !4
  %35 = load ptr, ptr %10, align 8, !tbaa !21
  %36 = call ptr @OSSL_STORE_open_ex(ptr noundef @.str.52, ptr noundef %34, ptr noundef %35, ptr noundef null, ptr noundef null, ptr noundef null, ptr noundef null, ptr noundef null)
  store ptr %36, ptr %8, align 8, !tbaa !27
  %37 = call i32 @test_ptr(ptr noundef @.str.6, i32 noundef 268, ptr noundef @.str.51, ptr noundef %36)
  %38 = icmp ne i32 %37, 0
  br i1 %38, label %40, label %39

39:                                               ; preds = %32
  br label %74

40:                                               ; preds = %32
  br label %41

41:                                               ; preds = %61, %40
  %42 = load ptr, ptr %8, align 8, !tbaa !27
  %43 = call i32 @OSSL_STORE_eof(ptr noundef %42)
  %44 = icmp ne i32 %43, 0
  br i1 %44, label %52, label %45

45:                                               ; preds = %41
  %46 = load ptr, ptr %8, align 8, !tbaa !27
  %47 = call ptr @OSSL_STORE_load(ptr noundef %46)
  store ptr %47, ptr %9, align 8, !tbaa !29
  %48 = icmp ne ptr %47, null
  br i1 %48, label %49, label %52

49:                                               ; preds = %45
  %50 = load ptr, ptr %6, align 8, !tbaa !13
  %51 = icmp eq ptr %50, null
  br label %52

52:                                               ; preds = %49, %45, %41
  %53 = phi i1 [ false, %45 ], [ false, %41 ], [ %51, %49 ]
  br i1 %53, label %54, label %63

54:                                               ; preds = %52
  %55 = load ptr, ptr %9, align 8, !tbaa !29
  %56 = call i32 @OSSL_STORE_INFO_get_type(ptr noundef %55)
  %57 = icmp eq i32 %56, 4
  br i1 %57, label %58, label %61

58:                                               ; preds = %54
  %59 = load ptr, ptr %9, align 8, !tbaa !29
  %60 = call ptr @OSSL_STORE_INFO_get1_PKEY(ptr noundef %59)
  store ptr %60, ptr %6, align 8, !tbaa !13
  br label %61

61:                                               ; preds = %58, %54
  %62 = load ptr, ptr %9, align 8, !tbaa !29
  call void @OSSL_STORE_INFO_free(ptr noundef %62)
  store ptr null, ptr %9, align 8, !tbaa !29
  br label %41, !llvm.loop !31

63:                                               ; preds = %52
  %64 = load ptr, ptr %6, align 8, !tbaa !13
  %65 = call i32 @test_ptr(ptr noundef @.str.6, i32 noundef 280, ptr noundef @.str.18, ptr noundef %64)
  %66 = icmp ne i32 %65, 0
  br i1 %66, label %67, label %72

67:                                               ; preds = %63
  %68 = load ptr, ptr %6, align 8, !tbaa !13
  %69 = call i32 @EVP_PKEY_is_a(ptr noundef %68, ptr noundef @.str.11)
  %70 = call i32 @test_int_eq(ptr noundef @.str.6, i32 noundef 280, ptr noundef @.str.53, ptr noundef @.str.22, i32 noundef %69, i32 noundef 1)
  %71 = icmp ne i32 %70, 0
  br i1 %71, label %73, label %72

72:                                               ; preds = %67, %63
  br label %74

73:                                               ; preds = %67
  store i32 1, ptr %5, align 4, !tbaa !11
  br label %74

74:                                               ; preds = %73, %72, %39, %31, %24, %18
  %75 = load ptr, ptr %4, align 8, !tbaa !9
  call void @fake_rsa_finish(ptr noundef %75)
  %76 = load ptr, ptr %3, align 8, !tbaa !9
  %77 = call i32 @OSSL_PROVIDER_unload(ptr noundef %76)
  %78 = load ptr, ptr %8, align 8, !tbaa !27
  %79 = call i32 @OSSL_STORE_close(ptr noundef %78)
  %80 = load ptr, ptr %6, align 8, !tbaa !13
  call void @EVP_PKEY_free(ptr noundef %80)
  %81 = load i32, ptr %5, align 4, !tbaa !11
  call void @llvm.lifetime.end.p0(i64 8, ptr %10) #3
  call void @llvm.lifetime.end.p0(i64 8, ptr %9) #3
  call void @llvm.lifetime.end.p0(i64 8, ptr %8) #3
  call void @llvm.lifetime.end.p0(i64 8, ptr %7) #3
  call void @llvm.lifetime.end.p0(i64 8, ptr %6) #3
  call void @llvm.lifetime.end.p0(i64 4, ptr %5) #3
  call void @llvm.lifetime.end.p0(i64 8, ptr %4) #3
  call void @llvm.lifetime.end.p0(i64 8, ptr %3) #3
  ret i32 %81
}