; Function Attrs: nounwind uwtable
define internal range(i32 0, 2) i32 @test_pkey_store(i32 noundef %0) #0 {
  %2 = icmp eq i32 %0, 0
  %3 = select i1 %2, ptr @.str.14, ptr @.str.20
  %4 = load ptr, ptr @libctx, align 8, !tbaa !4
  %5 = tail call ptr @OSSL_PROVIDER_load(ptr noundef %4, ptr noundef nonnull @.str.9) #3
  %6 = tail call i32 @test_ptr(ptr noundef nonnull @.str.6, i32 noundef 255, ptr noundef nonnull @.str.8, ptr noundef %5) #3
  %.not = icmp eq i32 %6, 0
  br i1 %.not, label %34, label %7

7:                                                ; preds = %1
  %8 = load ptr, ptr @libctx, align 8, !tbaa !4
  %9 = tail call ptr @fake_rsa_start(ptr noundef %8) #3
  %10 = tail call i32 @test_ptr(ptr noundef nonnull @.str.6, i32 noundef 258, ptr noundef nonnull @.str.7, ptr noundef %9) #3
  %.not21 = icmp eq i32 %10, 0
  br i1 %.not21, label %34, label %11

11:                                               ; preds = %7
  %12 = load ptr, ptr @libctx, align 8, !tbaa !4
  %13 = tail call ptr @OSSL_STORE_LOADER_fetch(ptr noundef %12, ptr noundef nonnull @.str.50, ptr noundef nonnull %3) #3
  %14 = tail call i32 @test_ptr(ptr noundef nonnull @.str.6, i32 noundef 262, ptr noundef nonnull @.str.49, ptr noundef %13) #3
  %.not22 = icmp eq i32 %14, 0
  br i1 %.not22, label %34, label %15

15:                                               ; preds = %11
  tail call void @OSSL_STORE_LOADER_free(ptr noundef %13) #3
  %16 = load ptr, ptr @libctx, align 8, !tbaa !4
  %17 = tail call ptr @OSSL_STORE_open_ex(ptr noundef nonnull @.str.52, ptr noundef %16, ptr noundef nonnull %3, ptr noundef null, ptr noundef null, ptr noundef null, ptr noundef null, ptr noundef null) #3
  %18 = tail call i32 @test_ptr(ptr noundef nonnull @.str.6, i32 noundef 268, ptr noundef nonnull @.str.51, ptr noundef %17) #3
  %.not23 = icmp eq i32 %18, 0
  br i1 %.not23, label %34, label %.preheader

.preheader:                                       ; preds = %15
  %19 = tail call i32 @OSSL_STORE_eof(ptr noundef %17) #3
  %.not2427 = icmp eq i32 %19, 0
  br i1 %.not2427, label %.lr.ph, label %.critedge

.lr.ph:                                           ; preds = %.preheader, %28
  %.128 = phi ptr [ %.2, %28 ], [ null, %.preheader ]
  %20 = tail call ptr @OSSL_STORE_load(ptr noundef %17) #3
  %21 = icmp ne ptr %20, null
  %22 = icmp eq ptr %.128, null
  %or.cond = select i1 %21, i1 %22, i1 false
  br i1 %or.cond, label %23, label %.critedge

23:                                               ; preds = %.lr.ph
  %24 = tail call i32 @OSSL_STORE_INFO_get_type(ptr noundef nonnull %20) #3
  %25 = icmp eq i32 %24, 4
  br i1 %25, label %26, label %28

26:                                               ; preds = %23
  %27 = tail call ptr @OSSL_STORE_INFO_get1_PKEY(ptr noundef nonnull %20) #3
  br label %28

28:                                               ; preds = %26, %23
  %.2 = phi ptr [ %27, %26 ], [ null, %23 ]
  tail call void @OSSL_STORE_INFO_free(ptr noundef nonnull %20) #3
  %29 = tail call i32 @OSSL_STORE_eof(ptr noundef %17) #3
  %.not24 = icmp eq i32 %29, 0
  br i1 %.not24, label %.lr.ph, label %.critedge, !llvm.loop !15

.critedge:                                        ; preds = %28, %.lr.ph, %.preheader
  %.1.lcssa = phi ptr [ null, %.preheader ], [ %.128, %.lr.ph ], [ %.2, %28 ]
  %30 = tail call i32 @test_ptr(ptr noundef nonnull @.str.6, i32 noundef 280, ptr noundef nonnull @.str.18, ptr noundef %.1.lcssa) #3
  %.not25 = icmp eq i32 %30, 0
  br i1 %.not25, label %34, label %31

31:                                               ; preds = %.critedge
  %32 = tail call i32 @EVP_PKEY_is_a(ptr noundef %.1.lcssa, ptr noundef nonnull @.str.11) #3
  %33 = tail call i32 @test_int_eq(ptr noundef nonnull @.str.6, i32 noundef 280, ptr noundef nonnull @.str.53, ptr noundef nonnull @.str.22, i32 noundef %32, i32 noundef 1) #3
  %.not26 = icmp ne i32 %33, 0
  %spec.select = zext i1 %.not26 to i32
  br label %34

34:                                               ; preds = %31, %.critedge, %15, %11, %7, %1
  %.019 = phi ptr [ %9, %.critedge ], [ %9, %15 ], [ %9, %11 ], [ %9, %7 ], [ null, %1 ], [ %9, %31 ]
  %.018 = phi i32 [ 0, %.critedge ], [ 0, %15 ], [ 0, %11 ], [ 0, %7 ], [ 0, %1 ], [ %spec.select, %31 ]
  %.017 = phi ptr [ %.1.lcssa, %.critedge ], [ null, %15 ], [ null, %11 ], [ null, %7 ], [ null, %1 ], [ %.1.lcssa, %31 ]
  %.0 = phi ptr [ %17, %.critedge ], [ %17, %15 ], [ null, %11 ], [ null, %7 ], [ null, %1 ], [ %17, %31 ]
  tail call void @fake_rsa_finish(ptr noundef %.019) #3
  %35 = tail call i32 @OSSL_PROVIDER_unload(ptr noundef %5) #3
  %36 = tail call i32 @OSSL_STORE_close(ptr noundef %.0) #3
  tail call void @EVP_PKEY_free(ptr noundef %.017) #3
  ret i32 %.018
}